target datalayout = "e-m:e-p270:32:32-p271:32:32-p272:64:64-i64:64-i128:128-f80:128-n8:16:32:64-S128"
target triple = "x86_64-pc-linux-gnu"

%struct._zval_struct = type { %union._zend_value, %union.anon.3, %union.anon.6 }
%union._zend_value = type { i64 }
%union.anon.3 = type { i32 }
%union.anon.6 = type { i32 }
%struct._zend_array = type { %struct._zend_refcounted_h, %union.anon.8, i32, %union.anon.10, i32, i32, i32, i32, i64, ptr }
%struct._zend_refcounted_h = type { i32, %union.anon.1 }
%union.anon.1 = type { i32 }
%union.anon.8 = type { i32 }
%union.anon.10 = type { ptr }
%struct._pdo_stmt_t = type { ptr, ptr, [6 x i8], i16, ptr, ptr, ptr, ptr, i32, i32, %union.anon, ptr, ptr, ptr, i64, ptr, ptr, ptr, %struct._zend_object }
%union.anon = type { %struct.anon.0 }
%struct.anon.0 = type { %struct._zend_fcall_info_cache }
%struct._zend_fcall_info_cache = type { ptr, ptr, ptr, ptr, ptr }
%struct._zend_object = type { %struct._zend_refcounted_h, i32, i32, ptr, ptr, ptr, [1 x %struct._zval_struct] }
%struct._zend_refcounted = type { %struct._zend_refcounted_h }
%struct.anon = type { ptr, ptr }

; Function Attrs: alwaysinline nounwind uwtable
define internal i32 @zval_gc_flags(i32 noundef %0) #3 {
  %2 = alloca i32, align 4
  store i32 %0, ptr %2, align 4, !tbaa !26
  %3 = load i32, ptr %2, align 4, !tbaa !26
  %4 = lshr i32 %3, 0
  %5 = and i32 %4, 1008
  ret i32 %5
}

; Function Attrs: alwaysinline nounwind uwtable
define internal i32 @zend_gc_delref(ptr noundef %0) #3 {
  %2 = alloca ptr, align 8
  store ptr %0, ptr %2, align 8, !tbaa !109
  %3 = load ptr, ptr %2, align 8, !tbaa !109
  %4 = getelementptr inbounds nuw %struct._zend_refcounted_h, ptr %3, i32 0, i32 0
  %5 = load i32, ptr %4, align 4, !tbaa !111
  %6 = icmp ugt i32 %5, 0
  call void @llvm.assume(i1 %6)
  br label %7

7:                                                ; preds = %1
  br label %8

8:                                                ; preds = %7
  %9 = load ptr, ptr %2, align 8, !tbaa !109
  %10 = getelementptr inbounds nuw %struct._zend_refcounted_h, ptr %9, i32 0, i32 0
  %11 = load i32, ptr %10, align 4, !tbaa !111
  %12 = add i32 %11, -1
  store i32 %12, ptr %10, align 4, !tbaa !111
  ret i32 %12
}

; Function Attrs: alwaysinline nounwind uwtable
define internal void @zend_array_release(ptr noundef %0) #3 {
  %2 = alloca ptr, align 8
  store ptr %0, ptr %2, align 8, !tbaa !46
  %3 = load ptr, ptr %2, align 8, !tbaa !46
  %4 = getelementptr inbounds nuw %struct._zend_array, ptr %3, i32 0, i32 0
  %5 = getelementptr inbounds nuw %struct._zend_refcounted_h, ptr %4, i32 0, i32 1
  %6 = load i32, ptr %5, align 4, !tbaa !45
  %7 = call i32 @zval_gc_flags(i32 noundef %6)
  %8 = and i32 %7, 64
  %9 = icmp ne i32 %8, 0
  br i1 %9, label %18, label %10

10:                                               ; preds = %1
  %11 = load ptr, ptr %2, align 8, !tbaa !46
  %12 = getelementptr inbounds nuw %struct._zend_array, ptr %11, i32 0, i32 0
  %13 = call i32 @zend_gc_delref(ptr noundef %12)
  %14 = icmp eq i32 %13, 0
  br i1 %14, label %15, label %17

15:                                               ; preds = %10
  %16 = load ptr, ptr %2, align 8, !tbaa !46
  call void @zend_array_destroy(ptr noundef %16)
  br label %17

17:                                               ; preds = %15, %10
  br label %18

18:                                               ; preds = %17, %1
  ret void
}

; Function Attrs: alwaysinline nounwind uwtable
define internal void @zend_object_release(ptr noundef %0) #3 {
  %2 = alloca ptr, align 8
  store ptr %0, ptr %2, align 8, !tbaa !108
  %3 = load ptr, ptr %2, align 8, !tbaa !108
  %4 = getelementptr inbounds nuw %struct._zend_object, ptr %3, i32 0, i32 0
  %5 = call i32 @zend_gc_delref(ptr noundef %4)
  %6 = icmp eq i32 %5, 0
  br i1 %6, label %7, label %9

7:                                                ; preds = %1
  %8 = load ptr, ptr %2, align 8, !tbaa !108
  call void @zend_objects_store_del(ptr noundef %8)
  br label %25

9:                                                ; preds = %1
  %10 = load ptr, ptr %2, align 8, !tbaa !108
  %11 = getelementptr inbounds nuw %struct._zend_refcounted, ptr %10, i32 0, i32 0
  %12 = getelementptr inbounds nuw %struct._zend_refcounted_h, ptr %11, i32 0, i32 1
  %13 = load i32, ptr %12, align 4, !tbaa !45
  %14 = and i32 %13, -1008
  %15 = icmp eq i32 %14, 0
  %16 = xor i1 %15, true
  %17 = xor i1 %16, true
  %18 = zext i1 %17 to i32
  %19 = sext i32 %18 to i64
  %20 = call i64 @llvm.expect.i64(i64 %19, i64 0)
  %21 = icmp ne i64 %20, 0
  br i1 %21, label %22, label %24

22:                                               ; preds = %9
  %23 = load ptr, ptr %2, align 8, !tbaa !108
  call void @gc_possible_root(ptr noundef %23)
  br label %24

24:                                               ; preds = %22, %9
  br label %25

25:                                               ; preds = %24, %7
  ret void
}

; Function Attrs: nounwind uwtable
define hidden void @pdo_stmt_free_default_fetch_mode(ptr noundef %0) #0 {
  %2 = alloca ptr, align 8
  %3 = alloca i32, align 4
  store ptr %0, ptr %2, align 8, !tbaa !4
  call void @llvm.lifetime.start.p0(i64 4, ptr %3) #14
  %4 = load ptr, ptr %2, align 8, !tbaa !4
  %5 = getelementptr inbounds nuw %struct._pdo_stmt_t, ptr %4, i32 0, i32 9
  %6 = load i32, ptr %5, align 4, !tbaa !118
  %7 = and i32 %6, 15
  store i32 %7, ptr %3, align 4, !tbaa !26
  %8 = load i32, ptr %3, align 4, !tbaa !26
  %9 = icmp eq i32 %8, 9
  br i1 %9, label %10, label %26

10:                                               ; preds = %1
  %11 = load ptr, ptr %2, align 8, !tbaa !4
  %12 = getelementptr inbounds nuw %struct._pdo_stmt_t, ptr %11, i32 0, i32 10
  %13 = load ptr, ptr %12, align 8, !tbaa !45
  %14 = icmp ne ptr %13, null
  %15 = xor i1 %14, true
  %16 = xor i1 %15, true
  %17 = zext i1 %16 to i32
  %18 = sext i32 %17 to i64
  %19 = call i64 @llvm.expect.i64(i64 %18, i64 1)
  %20 = icmp ne i64 %19, 0
  br i1 %20, label %21, label %25

21:                                               ; preds = %10
  %22 = load ptr, ptr %2, align 8, !tbaa !4
  %23 = getelementptr inbounds nuw %struct._pdo_stmt_t, ptr %22, i32 0, i32 10
  %24 = load ptr, ptr %23, align 8, !tbaa !45
  call void @zend_object_release(ptr noundef %24)
  br label %25

25:                                               ; preds = %21, %10
  br label %42

26:                                               ; preds = %1
  %27 = load i32, ptr %3, align 4, !tbaa !26
  %28 = icmp eq i32 %27, 8
  br i1 %28, label %29, label %41

29:                                               ; preds = %26
  %30 = load ptr, ptr %2, align 8, !tbaa !4
  %31 = getelementptr inbounds nuw %struct._pdo_stmt_t, ptr %30, i32 0, i32 10
  %32 = getelementptr inbounds nuw %struct.anon, ptr %31, i32 0, i32 0
  %33 = load ptr, ptr %32, align 8, !tbaa !45
  %34 = icmp ne ptr %33, null
  br i1 %34, label %35, label %40

35:                                               ; preds = %29
  %36 = load ptr, ptr %2, align 8, !tbaa !4
  %37 = getelementptr inbounds nuw %struct._pdo_stmt_t, ptr %36, i32 0, i32 10
  %38 = getelementptr inbounds nuw %struct.anon, ptr %37, i32 0, i32 0
  %39 = load ptr, ptr %38, align 8, !tbaa !45
  call void @zend_array_release(ptr noundef %39)
  br label %40

40:                                               ; preds = %35, %29
  br label %41

41:                                               ; preds = %40, %26
  br label %42

42:                                               ; preds = %41, %25
  %43 = load ptr, ptr %2, align 8, !tbaa !4
  %44 = getelementptr inbounds nuw %struct._pdo_stmt_t, ptr %43, i32 0, i32 10
  call void @llvm.memset.p0.i64(ptr align 8 %44, i8 0, i64 40, i1 false)
  call void @llvm.lifetime.end.p0(i64 4, ptr %3) #14
  ret void
}