; Function Attrs: nounwind uwtable
define hidden void @pdo_stmt_free_default_fetch_mode(ptr noundef captures(none) initializes((72, 104)) %0) local_unnamed_addr #0 {
  %2 = getelementptr inbounds nuw i8, ptr %0, i64 60
  %3 = load i32, ptr %2, align 4, !tbaa !107
  %4 = and i32 %3, 15
  switch i32 %4, label %zend_object_release.exit [
    i32 9, label %5
    i32 8, label %20
  ]

5:                                                ; preds = %1
  %6 = getelementptr inbounds nuw i8, ptr %0, i64 64
  %7 = load ptr, ptr %6, align 8, !tbaa !37
  %.not9 = icmp eq ptr %7, null
  br i1 %.not9, label %zend_object_release.exit, label %8, !prof !43

8:                                                ; preds = %5
  %9 = load i32, ptr %7, align 4, !tbaa !38
  %10 = icmp ne i32 %9, 0
  tail call void @llvm.assume(i1 %10)
  %11 = add i32 %9, -1
  store i32 %11, ptr %7, align 4, !tbaa !38
  %12 = icmp eq i32 %11, 0
  br i1 %12, label %13, label %14

13:                                               ; preds = %8
  tail call void @zend_objects_store_del(ptr noundef nonnull %7) #17
  br label %zend_object_release.exit

14:                                               ; preds = %8
  %15 = getelementptr inbounds nuw i8, ptr %7, i64 4
  %16 = load i32, ptr %15, align 4, !tbaa !37
  %17 = and i32 %16, -1008
  %18 = icmp eq i32 %17, 0
  br i1 %18, label %19, label %zend_object_release.exit, !prof !43

19:                                               ; preds = %14
  tail call void @gc_possible_root(ptr noundef nonnull %7) #17
  br label %zend_object_release.exit

20:                                               ; preds = %1
  %21 = getelementptr inbounds nuw i8, ptr %0, i64 64
  %22 = load ptr, ptr %21, align 8, !tbaa !37
  %.not = icmp eq ptr %22, null
  br i1 %.not, label %zend_object_release.exit, label %23

23:                                               ; preds = %20
  %24 = getelementptr inbounds nuw i8, ptr %22, i64 4
  %25 = load i32, ptr %24, align 4, !tbaa !37
  %26 = and i32 %25, 64
  %.not.i = icmp eq i32 %26, 0
  br i1 %.not.i, label %27, label %zend_object_release.exit

27:                                               ; preds = %23
  %28 = load i32, ptr %22, align 4, !tbaa !38
  %29 = icmp ne i32 %28, 0
  tail call void @llvm.assume(i1 %29)
  %30 = add i32 %28, -1
  store i32 %30, ptr %22, align 4, !tbaa !38
  %31 = icmp eq i32 %30, 0
  br i1 %31, label %32, label %zend_object_release.exit

32:                                               ; preds = %27
  tail call void @zend_array_destroy(ptr noundef nonnull %22) #17
  br label %zend_object_release.exit

zend_object_release.exit:                         ; preds = %32, %27, %23, %19, %14, %13, %1, %20, %5
  %33 = getelementptr inbounds nuw i8, ptr %0, i64 64
  tail call void @llvm.memset.p0.i64(ptr noundef nonnull align 8 dereferenceable(40) %33, i8 0, i64 40, i1 false)
  ret void
}